; ModuleID = 'source-C-CXX/55/1166.c'
source_filename = "source-C-CXX/55/1166.c"
target datalayout = "e-m:e-p270:32:32-p271:32:32-p272:64:64-i64:64-f80:128-n8:16:32:64-S128"
target triple = "x86_64-pc-linux-gnu"

@.str = private unnamed_addr constant [3 x i8] c"%d\00", align 1

; Function Attrs: nofree nounwind sspstrong uwtable
define dso_local i32 @main() local_unnamed_addr #0 {
  %1 = alloca i32, align 4
  %2 = bitcast i32* %1 to i8*
  call void @llvm.lifetime.start.p0i8(i64 4, i8* nonnull %2) #3
  %3 = call i32 (i8*, ...) @__isoc99_scanf(i8* getelementptr inbounds ([3 x i8], [3 x i8]* @.str, i64 0, i64 0), i32* nonnull %1)
  %4 = load i32, i32* %1, align 4, !tbaa !5
  %5 = srem i32 %4, 10000
  %6 = sdiv i32 %4, 10000
  %7 = trunc i32 %5 to i16
  %8 = sdiv i16 %7, 1000
  %9 = srem i16 %7, 1000
  %10 = mul nsw i16 %8, 10
  %11 = sext i16 %10 to i32
  %12 = add nsw i32 %6, %11
  %13 = srem i16 %9, 100
  %14 = sub nsw i16 %9, %13
  %15 = sext i16 %14 to i32
  %16 = add nsw i32 %12, %15
  %17 = trunc i16 %13 to i8
  %18 = sdiv i8 %17, 10
  %19 = sext i8 %18 to i32
  %20 = srem i8 %17, 10
  %21 = sext i8 %20 to i32
  %22 = mul nsw i32 %19, 1000
  %23 = add nsw i32 %16, %22
  %24 = mul nsw i32 %21, 10000
  %25 = add nsw i32 %23, %24
  %26 = srem i32 %25, 10
  %27 = icmp eq i32 %26, 0
  %28 = sdiv i32 %25, 10
  %29 = select i1 %27, i32 %28, i32 %25
  %30 = srem i32 %29, 10
  %31 = icmp eq i32 %30, 0
  %32 = sdiv i32 %29, 10
  %33 = select i1 %31, i32 %32, i32 %29
  %34 = srem i32 %33, 10
  %35 = icmp eq i32 %34, 0
  %36 = sdiv i32 %33, 10
  %37 = select i1 %35, i32 %36, i32 %33
  %38 = srem i32 %37, 10
  %39 = icmp eq i32 %38, 0
  %40 = sdiv i32 %37, 10
  %41 = select i1 %39, i32 %40, i32 %37
  %42 = call i32 (i8*, ...) @printf(i8* nonnull dereferenceable(1) getelementptr inbounds ([3 x i8], [3 x i8]* @.str, i64 0, i64 0), i32 %41)
  call void @llvm.lifetime.end.p0i8(i64 4, i8* nonnull %2) #3
  ret i32 0
}

; Function Attrs: argmemonly mustprogress nofree nosync nounwind willreturn
declare void @llvm.lifetime.start.p0i8(i64 immarg, i8* nocapture) #1

; Function Attrs: nofree nounwind
declare noundef i32 @__isoc99_scanf(i8* nocapture noundef readonly, ...) local_unnamed_addr #2

; Function Attrs: nofree nounwind
declare noundef i32 @printf(i8* nocapture noundef readonly, ...) local_unnamed_addr #2

; Function Attrs: argmemonly mustprogress nofree nosync nounwind willreturn
declare void @llvm.lifetime.end.p0i8(i64 immarg, i8* nocapture) #1


!llvm.module.flags = !{!0, !1, !2, !3}
!llvm.ident = !{!4}

!0 = !{i32 1, !"wchar_size", i32 4}
!1 = !{i32 7, !"PIC Level", i32 2}
!2 = !{i32 7, !"PIE Level", i32 2}
!3 = !{i32 7, !"uwtable", i32 1}
!4 = !{!"clang version 13.0.0"}
!5 = !{!6, !6, i64 0}
!6 = !{!"int", !7, i64 0}
!7 = !{!"omnipotent char", !8, i64 0}
!8 = !{!"Simple C/C++ TBAA"}
